; Function Attrs: nounwind uwtable
define ptr @l_Lean_KVMap_forIn___rarg(ptr noundef %0, ptr noundef %1, ptr noundef %2, ptr noundef %3) #0 {
  %5 = ptrtoint ptr %1 to i64
  %6 = and i64 %5, 1
  %.not.i = icmp eq i64 %6, 0
  br i1 %.not.i, label %7, label %lean_inc_n.exit

7:                                                ; preds = %4
  %.val.i.i = load i32, ptr %1, align 4, !tbaa !8
  %8 = icmp sgt i32 %.val.i.i, 0
  br i1 %8, label %9, label %11, !prof !11

9:                                                ; preds = %7
  %10 = add nuw i32 %.val.i.i, 2
  store i32 %10, ptr %1, align 4, !tbaa !8
  br label %lean_inc_n.exit

11:                                               ; preds = %7
  %.not.i.i = icmp eq i32 %.val.i.i, 0
  br i1 %.not.i.i, label %lean_inc_n.exit, label %12

12:                                               ; preds = %11
  tail call void @lean_inc_ref_n_cold(ptr noundef nonnull %1, i32 noundef 2) #6
  br label %lean_inc_n.exit

lean_inc_n.exit:                                  ; preds = %4, %9, %11, %12
  %13 = tail call ptr @l_List_forIn_x27_loop___at_Lean_KVMap_forIn___spec__1___rarg(ptr noundef %0, ptr noundef %3, ptr noundef nonnull inttoptr (i64 1 to ptr), ptr noundef %1, ptr noundef %1, ptr noundef %1, ptr noundef %2, ptr nonnull poison)
  ret ptr %13
}